target datalayout = "e-m:e-p270:32:32-p271:32:32-p272:64:64-i64:64-i128:128-f80:128-n8:16:32:64-S128"
target triple = "x86_64-pc-linux-gnu"

%struct.stat = type { i64, i64, i64, i32, i32, i32, i32, i64, i64, i64, i64, %struct.timespec, %struct.timespec, %struct.timespec, [3 x i64] }
%struct.timespec = type { i64, i64 }
%struct.dirent = type { i64, i64, i16, i8, [256 x i8] }

@.str = private unnamed_addr constant [6 x i8] c"%s/%s\00", align 1
@.str.4 = private unnamed_addr constant [29 x i8] c"could not stat file \22%s\22: %m\00", align 1
@.str.5 = private unnamed_addr constant [34 x i8] c"could not open directory \22%s\22: %m\00", align 1
@.str.6 = private unnamed_addr constant [2 x i8] c".\00", align 1
@.str.7 = private unnamed_addr constant [3 x i8] c"..\00", align 1
@.str.8 = private unnamed_addr constant [34 x i8] c"could not read directory \22%s\22: %m\00", align 1

; Function Attrs: nounwind uwtable
define i32 @get_dirent_type(ptr noundef %0, ptr noundef %1, i1 noundef zeroext %2, i32 noundef %3) #0 {
  %5 = alloca ptr, align 8
  %6 = alloca ptr, align 8
  %7 = alloca i8, align 1
  %8 = alloca i32, align 4
  %9 = alloca i32, align 4
  %10 = alloca %struct.stat, align 8
  %11 = alloca i32, align 4
  store ptr %0, ptr %5, align 8
  store ptr %1, ptr %6, align 8
  %12 = zext i1 %2 to i8
  store i8 %12, ptr %7, align 1
  store i32 %3, ptr %8, align 4
  call void @llvm.lifetime.start.p0(i64 4, ptr %9) #9
  %13 = load ptr, ptr %6, align 8
  %14 = getelementptr inbounds nuw %struct.dirent, ptr %13, i32 0, i32 3
  %15 = load i8, ptr %14, align 2
  %16 = zext i8 %15 to i32
  %17 = icmp eq i32 %16, 8
  br i1 %17, label %18, label %19

18:                                               ; preds = %4
  store i32 2, ptr %9, align 4
  br label %39

19:                                               ; preds = %4
  %20 = load ptr, ptr %6, align 8
  %21 = getelementptr inbounds nuw %struct.dirent, ptr %20, i32 0, i32 3
  %22 = load i8, ptr %21, align 2
  %23 = zext i8 %22 to i32
  %24 = icmp eq i32 %23, 4
  br i1 %24, label %25, label %26

25:                                               ; preds = %19
  store i32 3, ptr %9, align 4
  br label %38

26:                                               ; preds = %19
  %27 = load ptr, ptr %6, align 8
  %28 = getelementptr inbounds nuw %struct.dirent, ptr %27, i32 0, i32 3
  %29 = load i8, ptr %28, align 2
  %30 = zext i8 %29 to i32
  %31 = icmp eq i32 %30, 10
  br i1 %31, label %32, label %36

32:                                               ; preds = %26
  %33 = load i8, ptr %7, align 1, !range !5, !noundef !6
  %34 = trunc i8 %33 to i1
  br i1 %34, label %36, label %35

35:                                               ; preds = %32
  store i32 4, ptr %9, align 4
  br label %37

36:                                               ; preds = %32, %26
  store i32 1, ptr %9, align 4
  br label %37

37:                                               ; preds = %36, %35
  br label %38

38:                                               ; preds = %37, %25
  br label %39

39:                                               ; preds = %38, %18
  %40 = load i32, ptr %9, align 4
  %41 = icmp eq i32 %40, 1
  br i1 %41, label %42, label %79

42:                                               ; preds = %39
  call void @llvm.lifetime.start.p0(i64 144, ptr %10) #9
  call void @llvm.lifetime.start.p0(i64 4, ptr %11) #9
  %43 = load i8, ptr %7, align 1, !range !5, !noundef !6
  %44 = trunc i8 %43 to i1
  br i1 %44, label %45, label %48

45:                                               ; preds = %42
  %46 = load ptr, ptr %5, align 8
  %47 = call i32 @stat(ptr noundef %46, ptr noundef %10) #9
  store i32 %47, ptr %11, align 4
  br label %51

48:                                               ; preds = %42
  %49 = load ptr, ptr %5, align 8
  %50 = call i32 @lstat(ptr noundef %49, ptr noundef %10) #9
  store i32 %50, ptr %11, align 4
  br label %51

51:                                               ; preds = %48, %45
  %52 = load i32, ptr %11, align 4
  %53 = icmp slt i32 %52, 0
  br i1 %53, label %54, label %57

54:                                               ; preds = %51
  store i32 0, ptr %9, align 4
  %55 = load i32, ptr %8, align 4
  %56 = load ptr, ptr %5, align 8
  call void (i32, i32, ptr, ...) @pg_log_generic(i32 noundef %55, i32 noundef 0, ptr noundef @.str.4, ptr noundef %56)
  br label %78

57:                                               ; preds = %51
  %58 = getelementptr inbounds nuw %struct.stat, ptr %10, i32 0, i32 3
  %59 = load i32, ptr %58, align 8
  %60 = and i32 %59, 61440
  %61 = icmp eq i32 %60, 32768
  br i1 %61, label %62, label %63

62:                                               ; preds = %57
  store i32 2, ptr %9, align 4
  br label %77

63:                                               ; preds = %57
  %64 = getelementptr inbounds nuw %struct.stat, ptr %10, i32 0, i32 3
  %65 = load i32, ptr %64, align 8
  %66 = and i32 %65, 61440
  %67 = icmp eq i32 %66, 16384
  br i1 %67, label %68, label %69

68:                                               ; preds = %63
  store i32 3, ptr %9, align 4
  br label %76

69:                                               ; preds = %63
  %70 = getelementptr inbounds nuw %struct.stat, ptr %10, i32 0, i32 3
  %71 = load i32, ptr %70, align 8
  %72 = and i32 %71, 61440
  %73 = icmp eq i32 %72, 40960
  br i1 %73, label %74, label %75

74:                                               ; preds = %69
  store i32 4, ptr %9, align 4
  br label %75

75:                                               ; preds = %74, %69
  br label %76

76:                                               ; preds = %75, %68
  br label %77

77:                                               ; preds = %76, %62
  br label %78

78:                                               ; preds = %77, %54
  call void @llvm.lifetime.end.p0(i64 4, ptr %11) #9
  call void @llvm.lifetime.end.p0(i64 144, ptr %10) #9
  br label %79

79:                                               ; preds = %78, %39
  %80 = load i32, ptr %9, align 4
  call void @llvm.lifetime.end.p0(i64 4, ptr %9) #9
  ret i32 %80
}

; Function Attrs: nounwind uwtable
define internal void @walkdir(ptr noundef %0, ptr noundef %1, i1 noundef zeroext %2) #0 {
  %4 = alloca ptr, align 8
  %5 = alloca ptr, align 8
  %6 = alloca i8, align 1
  %7 = alloca ptr, align 8
  %8 = alloca ptr, align 8
  %9 = alloca i32, align 4
  %10 = alloca [2048 x i8], align 16
  store ptr %0, ptr %4, align 8
  store ptr %1, ptr %5, align 8
  %11 = zext i1 %2 to i8
  store i8 %11, ptr %6, align 1
  call void @llvm.lifetime.start.p0(i64 8, ptr %7) #9
  call void @llvm.lifetime.start.p0(i64 8, ptr %8) #9
  %12 = load ptr, ptr %4, align 8
  %13 = call ptr @opendir(ptr noundef %12)
  store ptr %13, ptr %7, align 8
  %14 = load ptr, ptr %7, align 8
  %15 = icmp eq ptr %14, null
  br i1 %15, label %16, label %18

16:                                               ; preds = %3
  %17 = load ptr, ptr %4, align 8
  call void (i32, i32, ptr, ...) @pg_log_generic(i32 noundef 4, i32 noundef 0, ptr noundef @.str.5, ptr noundef %17)
  store i32 1, ptr %9, align 4
  br label %73

18:                                               ; preds = %3
  br label %19

19:                                               ; preds = %60, %58, %18
  %20 = call ptr @__errno_location() #10
  store i32 0, ptr %20, align 4
  %21 = load ptr, ptr %7, align 8
  %22 = call ptr @readdir(ptr noundef %21)
  store ptr %22, ptr %8, align 8
  %23 = icmp ne ptr %22, null
  br i1 %23, label %24, label %61

24:                                               ; preds = %19
  call void @llvm.lifetime.start.p0(i64 2048, ptr %10) #9
  %25 = load ptr, ptr %8, align 8
  %26 = getelementptr inbounds nuw %struct.dirent, ptr %25, i32 0, i32 4
  %27 = getelementptr inbounds [256 x i8], ptr %26, i64 0, i64 0
  %28 = call i32 @strcmp(ptr noundef %27, ptr noundef @.str.6) #11
  %29 = icmp eq i32 %28, 0
  br i1 %29, label %36, label %30

30:                                               ; preds = %24
  %31 = load ptr, ptr %8, align 8
  %32 = getelementptr inbounds nuw %struct.dirent, ptr %31, i32 0, i32 4
  %33 = getelementptr inbounds [256 x i8], ptr %32, i64 0, i64 0
  %34 = call i32 @strcmp(ptr noundef %33, ptr noundef @.str.7) #11
  %35 = icmp eq i32 %34, 0
  br i1 %35, label %36, label %37

36:                                               ; preds = %30, %24
  store i32 2, ptr %9, align 4
  br label %58, !llvm.loop !7

37:                                               ; preds = %30
  %38 = getelementptr inbounds [2048 x i8], ptr %10, i64 0, i64 0
  %39 = load ptr, ptr %4, align 8
  %40 = load ptr, ptr %8, align 8
  %41 = getelementptr inbounds nuw %struct.dirent, ptr %40, i32 0, i32 4
  %42 = getelementptr inbounds [256 x i8], ptr %41, i64 0, i64 0
  %43 = call i32 (ptr, i64, ptr, ...) @pg_snprintf(ptr noundef %38, i64 noundef 2048, ptr noundef @.str, ptr noundef %39, ptr noundef %42)
  %44 = getelementptr inbounds [2048 x i8], ptr %10, i64 0, i64 0
  %45 = load ptr, ptr %8, align 8
  %46 = load i8, ptr %6, align 1, !range !5, !noundef !6
  %47 = trunc i8 %46 to i1
  %48 = call i32 @get_dirent_type(ptr noundef %44, ptr noundef %45, i1 noundef zeroext %47, i32 noundef 4)
  switch i32 %48, label %56 [
    i32 2, label %49
    i32 3, label %53
  ]

49:                                               ; preds = %37
  %50 = load ptr, ptr %5, align 8
  %51 = getelementptr inbounds [2048 x i8], ptr %10, i64 0, i64 0
  %52 = call i32 %50(ptr noundef %51, i1 noundef zeroext false)
  br label %57

53:                                               ; preds = %37
  %54 = getelementptr inbounds [2048 x i8], ptr %10, i64 0, i64 0
  %55 = load ptr, ptr %5, align 8
  call void @walkdir(ptr noundef %54, ptr noundef %55, i1 noundef zeroext false)
  br label %57

56:                                               ; preds = %37
  br label %57

57:                                               ; preds = %56, %53, %49
  store i32 0, ptr %9, align 4
  br label %58

58:                                               ; preds = %57, %36
  call void @llvm.lifetime.end.p0(i64 2048, ptr %10) #9
  %59 = load i32, ptr %9, align 4
  switch i32 %59, label %76 [
    i32 0, label %60
    i32 2, label %19
  ]

60:                                               ; preds = %58
  br label %19, !llvm.loop !7

61:                                               ; preds = %19
  %62 = call ptr @__errno_location() #10
  %63 = load i32, ptr %62, align 4
  %64 = icmp ne i32 %63, 0
  br i1 %64, label %65, label %67

65:                                               ; preds = %61
  %66 = load ptr, ptr %4, align 8
  call void (i32, i32, ptr, ...) @pg_log_generic(i32 noundef 4, i32 noundef 0, ptr noundef @.str.8, ptr noundef %66)
  br label %67

67:                                               ; preds = %65, %61
  %68 = load ptr, ptr %7, align 8
  %69 = call i32 @closedir(ptr noundef %68)
  %70 = load ptr, ptr %5, align 8
  %71 = load ptr, ptr %4, align 8
  %72 = call i32 %70(ptr noundef %71, i1 noundef zeroext true)
  store i32 0, ptr %9, align 4
  br label %73

73:                                               ; preds = %67, %16
  call void @llvm.lifetime.end.p0(i64 8, ptr %8) #9
  call void @llvm.lifetime.end.p0(i64 8, ptr %7) #9
  %74 = load i32, ptr %9, align 4
  switch i32 %74, label %76 [
    i32 0, label %75
    i32 1, label %75
  ]

75:                                               ; preds = %73, %73
  ret void

76:                                               ; preds = %73, %58
  unreachable
}