; Function Attrs: nounwind uwtable
define internal fastcc void @walkdir(ptr noundef %0, ptr noundef readonly captures(none) %1, i1 noundef zeroext %2) unnamed_addr #0 {
  %4 = alloca %struct.stat, align 8
  %5 = alloca [2048 x i8], align 16
  %6 = tail call ptr @opendir(ptr noundef %0)
  %7 = icmp eq ptr %6, null
  br i1 %7, label %11, label %.preheader

.preheader:                                       ; preds = %3
  %8 = tail call ptr @__errno_location() #12
  store i32 0, ptr %8, align 4
  %9 = tail call ptr @readdir(ptr noundef nonnull %6) #11
  %.not29 = icmp eq ptr %9, null
  br i1 %.not29, label %._crit_edge, label %sub_0.lr.ph

sub_0.lr.ph:                                      ; preds = %.preheader
  %10 = getelementptr inbounds nuw i8, ptr %4, i64 24
  br label %sub_0

11:                                               ; preds = %3
  tail call void (i32, i32, ptr, ...) @pg_log_generic(i32 noundef 4, i32 noundef 0, ptr noundef nonnull @.str.5, ptr noundef %0) #11
  br label %45

sub_0:                                            ; preds = %sub_0.lr.ph, %get_dirent_type.exit.thread
  %12 = phi ptr [ %9, %sub_0.lr.ph ], [ %39, %get_dirent_type.exit.thread ]
  call void @llvm.lifetime.start.p0(i64 2048, ptr nonnull %5) #11
  %13 = getelementptr inbounds nuw i8, ptr %12, i64 19
  %14 = load i8, ptr %13, align 1
  %.not30 = icmp eq i8 %14, 46
  br i1 %.not30, label %.tail, label %.tail25.thread

.tail:                                            ; preds = %sub_0
  %15 = getelementptr inbounds nuw i8, ptr %12, i64 20
  %16 = load i8, ptr %15, align 1
  %17 = icmp eq i8 %16, 0
  br i1 %17, label %get_dirent_type.exit.thread, label %sub_127, !llvm.loop !5

sub_127:                                          ; preds = %.tail
  %18 = getelementptr inbounds nuw i8, ptr %12, i64 20
  %19 = load i8, ptr %18, align 1
  %.not32 = icmp eq i8 %19, 46
  br i1 %.not32, label %.tail25, label %.tail25.thread

.tail25:                                          ; preds = %sub_127
  %20 = getelementptr inbounds nuw i8, ptr %12, i64 21
  %21 = load i8, ptr %20, align 1
  %22 = icmp eq i8 %21, 0
  br i1 %22, label %get_dirent_type.exit.thread, label %.tail25.thread, !llvm.loop !5

.tail25.thread:                                   ; preds = %sub_0, %sub_127, %.tail25
  %23 = call i32 (ptr, i64, ptr, ...) @pg_snprintf(ptr noundef nonnull %5, i64 noundef 2048, ptr noundef nonnull @.str, ptr noundef %0, ptr noundef nonnull %13) #11
  %24 = getelementptr inbounds nuw i8, ptr %12, i64 18
  %25 = load i8, ptr %24, align 2
  switch i8 %25, label %27 [
    i8 8, label %get_dirent_type.exit.thread17
    i8 4, label %get_dirent_type.exit.thread19
    i8 10, label %26
  ]

26:                                               ; preds = %.tail25.thread
  br i1 %2, label %.thread15.i, label %get_dirent_type.exit.thread

.thread15.i:                                      ; preds = %26
  call void @llvm.lifetime.start.p0(i64 144, ptr nonnull %4) #11
  br label %28

27:                                               ; preds = %.tail25.thread
  call void @llvm.lifetime.start.p0(i64 144, ptr nonnull %4) #11
  br i1 %2, label %28, label %30

28:                                               ; preds = %27, %.thread15.i
  %29 = call i32 @stat(ptr noundef nonnull %5, ptr noundef nonnull %4) #11
  br label %32

30:                                               ; preds = %27
  %31 = call i32 @lstat(ptr noundef nonnull %5, ptr noundef nonnull %4) #11
  br label %32

32:                                               ; preds = %30, %28
  %.0.i = phi i32 [ %29, %28 ], [ %31, %30 ]
  %33 = icmp slt i32 %.0.i, 0
  br i1 %33, label %34, label %35

34:                                               ; preds = %32
  call void (i32, i32, ptr, ...) @pg_log_generic(i32 noundef 4, i32 noundef 0, ptr noundef nonnull @.str.4, ptr noundef nonnull %5) #11
  br label %get_dirent_type.exit.thread21

35:                                               ; preds = %32
  %36 = load i32, ptr %10, align 8
  %37 = trunc i32 %36 to i16
  %trunc.i = and i16 %37, -4096
  switch i16 %trunc.i, label %get_dirent_type.exit.thread21 [
    i16 -32768, label %get_dirent_type.exit.thread23
    i16 16384, label %get_dirent_type.exit
  ]

get_dirent_type.exit.thread23:                    ; preds = %35
  call void @llvm.lifetime.end.p0(i64 144, ptr nonnull %4) #11
  br label %get_dirent_type.exit.thread17

get_dirent_type.exit.thread21:                    ; preds = %34, %35
  call void @llvm.lifetime.end.p0(i64 144, ptr nonnull %4) #11
  br label %get_dirent_type.exit.thread

get_dirent_type.exit:                             ; preds = %35
  call void @llvm.lifetime.end.p0(i64 144, ptr nonnull %4) #11
  br label %get_dirent_type.exit.thread19

get_dirent_type.exit.thread17:                    ; preds = %.tail25.thread, %get_dirent_type.exit.thread23
  %38 = call i32 %1(ptr noundef nonnull %5, i1 noundef zeroext false) #11, !callees !6
  br label %get_dirent_type.exit.thread

get_dirent_type.exit.thread19:                    ; preds = %.tail25.thread, %get_dirent_type.exit
  call fastcc void @walkdir(ptr noundef nonnull %5, ptr noundef %1, i1 noundef zeroext false)
  br label %get_dirent_type.exit.thread

get_dirent_type.exit.thread:                      ; preds = %26, %get_dirent_type.exit.thread21, %get_dirent_type.exit.thread17, %get_dirent_type.exit.thread19, %.tail, %.tail25
  call void @llvm.lifetime.end.p0(i64 2048, ptr nonnull %5) #11
  store i32 0, ptr %8, align 4
  %39 = call ptr @readdir(ptr noundef nonnull %6) #11
  %.not = icmp eq ptr %39, null
  br i1 %.not, label %._crit_edge, label %sub_0

._crit_edge:                                      ; preds = %get_dirent_type.exit.thread, %.preheader
  %40 = load i32, ptr %8, align 4
  %.not15 = icmp eq i32 %40, 0
  br i1 %.not15, label %42, label %41

41:                                               ; preds = %._crit_edge
  call void (i32, i32, ptr, ...) @pg_log_generic(i32 noundef 4, i32 noundef 0, ptr noundef nonnull @.str.8, ptr noundef %0) #11
  br label %42

42:                                               ; preds = %41, %._crit_edge
  %43 = call i32 @closedir(ptr noundef nonnull %6)
  %44 = call i32 %1(ptr noundef %0, i1 noundef zeroext true) #11, !callees !6
  br label %45

45:                                               ; preds = %42, %11
  ret void
}